target datalayout = "e-m:e-p270:32:32-p271:32:32-p272:64:64-i64:64-i128:128-f80:128-n8:16:32:64-S128"
target triple = "x86_64-pc-linux-gnu"

%struct.png_color_8_struct = type { i8, i8, i8, i8, i8 }
%struct.png_color_16_struct = type { i8, i16, i16, i16, i16 }
%struct.png_colorspace = type { i32, %struct.png_xy, %struct.png_XYZ, i16, i16 }
%struct.png_xy = type { i32, i32, i32, i32, i32, i32, i32, i32 }
%struct.png_XYZ = type { i32, i32, i32, i32, i32, i32, i32, i32, i32 }
%struct.png_info_def = type { i32, i32, i32, i64, ptr, i16, i16, i8, i8, i8, i8, i8, i8, i8, i8, [8 x i8], %struct.png_colorspace, ptr, ptr, i32, i32, i32, ptr, %struct.png_time_struct, %struct.png_color_8_struct, ptr, %struct.png_color_16_struct, %struct.png_color_16_struct, i32, i32, i8, i32, i32, i8, i32, ptr, ptr, ptr, ptr, i32, i32, ptr, ptr, i8, i8, i32, ptr, i32, ptr, i32, i8, ptr, ptr, ptr }
%struct.png_time_struct = type { i16, i8, i8, i8, i8, i8 }

; Function Attrs: nounwind uwtable
define i32 @png_get_x_offset_microns(ptr noalias noundef %0, ptr noalias noundef %1) #0 {
  %3 = alloca i32, align 4
  %4 = alloca ptr, align 8
  %5 = alloca ptr, align 8
  store ptr %0, ptr %4, align 8
  store ptr %1, ptr %5, align 8
  %6 = load ptr, ptr %4, align 8
  %7 = icmp ne ptr %6, null
  br i1 %7, label %8, label %28

8:                                                ; preds = %2
  %9 = load ptr, ptr %5, align 8
  %10 = icmp ne ptr %9, null
  br i1 %10, label %11, label %28

11:                                               ; preds = %8
  %12 = load ptr, ptr %5, align 8
  %13 = getelementptr inbounds %struct.png_info_def, ptr %12, i32 0, i32 2
  %14 = load i32, ptr %13, align 8
  %15 = and i32 %14, 256
  %16 = icmp ne i32 %15, 0
  br i1 %16, label %17, label %28

17:                                               ; preds = %11
  %18 = load ptr, ptr %5, align 8
  %19 = getelementptr inbounds %struct.png_info_def, ptr %18, i32 0, i32 30
  %20 = load i8, ptr %19, align 4
  %21 = zext i8 %20 to i32
  %22 = icmp eq i32 %21, 1
  br i1 %22, label %23, label %27

23:                                               ; preds = %17
  %24 = load ptr, ptr %5, align 8
  %25 = getelementptr inbounds %struct.png_info_def, ptr %24, i32 0, i32 28
  %26 = load i32, ptr %25, align 4
  store i32 %26, ptr %3, align 4
  br label %29

27:                                               ; preds = %17
  br label %28

28:                                               ; preds = %27, %11, %8, %2
  store i32 0, ptr %3, align 4
  br label %29

29:                                               ; preds = %28, %23
  %30 = load i32, ptr %3, align 4
  ret i32 %30
}

; Function Attrs: nounwind uwtable
define float @png_get_x_offset_inches(ptr noalias noundef %0, ptr noalias noundef %1) #0 {
  %3 = alloca ptr, align 8
  %4 = alloca ptr, align 8
  store ptr %0, ptr %3, align 8
  store ptr %1, ptr %4, align 8
  %5 = load ptr, ptr %3, align 8
  %6 = load ptr, ptr %4, align 8
  %7 = call i32 @png_get_x_offset_microns(ptr noundef %5, ptr noundef %6)
  %8 = sitofp i32 %7 to double
  %9 = fmul double %8, 3.937000e-05
  %10 = fptrunc double %9 to float
  ret float %10
}