; Function Attrs: mustprogress nofree norecurse nosync nounwind willreturn memory(argmem: read) uwtable
define float @png_get_x_offset_inches(ptr noalias noundef readnone %0, ptr noalias noundef readonly %1) local_unnamed_addr #0 {
  %3 = icmp ne ptr %0, null
  %4 = icmp ne ptr %1, null
  %or.cond.i = and i1 %3, %4
  br i1 %or.cond.i, label %5, label %png_get_x_offset_microns.exit

5:                                                ; preds = %2
  %6 = getelementptr inbounds i8, ptr %1, i64 8
  %7 = load i32, ptr %6, align 8, !alias.scope !29, !noalias !32
  %8 = and i32 %7, 256
  %.not.i = icmp eq i32 %8, 0
  br i1 %.not.i, label %png_get_x_offset_microns.exit, label %9

9:                                                ; preds = %5
  %10 = getelementptr inbounds i8, ptr %1, i64 220
  %11 = load i8, ptr %10, align 4, !alias.scope !29, !noalias !32
  %12 = icmp eq i8 %11, 1
  br i1 %12, label %13, label %png_get_x_offset_microns.exit

13:                                               ; preds = %9
  %14 = getelementptr inbounds i8, ptr %1, i64 212
  %15 = load i32, ptr %14, align 4, !alias.scope !29, !noalias !32
  %16 = sitofp i32 %15 to double
  %17 = fmul double %16, 3.937000e-05
  %18 = fptrunc double %17 to float
  br label %png_get_x_offset_microns.exit

png_get_x_offset_microns.exit:                    ; preds = %2, %5, %9, %13
  %.0.i = phi float [ %18, %13 ], [ 0.000000e+00, %9 ], [ 0.000000e+00, %5 ], [ 0.000000e+00, %2 ]
  ret float %.0.i
}